target datalayout = "e-m:e-p270:32:32-p271:32:32-p272:64:64-i64:64-i128:128-f80:128-n8:16:32:64-S128"
target triple = "x86_64-unknown-linux-gnu"

%"class.icu_75::LocalUResourceBundlePointer" = type { %"class.icu_75::LocalPointerBase" }
%"class.icu_75::LocalPointerBase" = type { ptr }
%"class.icu_75::UObject" = type { ptr }
%"class.icu_75::CollationLoader" = type { ptr, ptr, %"class.icu_75::Locale", %"class.icu_75::Locale", [16 x i8], [16 x i8], i32, i8, ptr, ptr, ptr }
%"class.icu_75::Locale" = type <{ %"class.icu_75::UObject", [12 x i8], [6 x i8], [4 x i8], [2 x i8], i32, [4 x i8], ptr, [157 x i8], [3 x i8], ptr, i8, [7 x i8] }>

@.str.3 = private unnamed_addr constant [11 x i8] c"collations\00", align 1
@.str.5 = private unnamed_addr constant [10 x i8] c"collation\00", align 1
@.str.6 = private unnamed_addr constant [8 x i8] c"default\00", align 1
@.str.7 = private unnamed_addr constant [9 x i8] c"standard\00", align 1
@.str.8 = private unnamed_addr constant [7 x i8] c"search\00", align 1

; Function Attrs: mustprogress nounwind uwtable
define linkonce_odr void @_ZN6icu_7516LocalPointerBaseI15UResourceBundleEC2EPS1_(ptr noundef nonnull align 8 dereferenceable(8) %this, ptr noundef %p) unnamed_addr #0 comdat align 2 {
entry:
  %this.addr = alloca ptr, align 8
  %p.addr = alloca ptr, align 8
  store ptr %this, ptr %this.addr, align 8
  store ptr %p, ptr %p.addr, align 8
  %this1 = load ptr, ptr %this.addr, align 8
  %ptr = getelementptr inbounds %"class.icu_75::LocalPointerBase", ptr %this1, i32 0, i32 0
  %0 = load ptr, ptr %p.addr, align 8
  store ptr %0, ptr %ptr, align 8
  ret void
}

; Function Attrs: mustprogress nounwind uwtable
define internal noundef signext i8 @_ZL9U_SUCCESS10UErrorCode(i32 noundef %code) #0 {
entry:
  %code.addr = alloca i32, align 4
  store i32 %code, ptr %code.addr, align 4
  %0 = load i32, ptr %code.addr, align 4
  %cmp = icmp sle i32 %0, 0
  %conv = zext i1 %cmp to i8
  ret i8 %conv
}

; Function Attrs: mustprogress nounwind uwtable
define linkonce_odr noundef ptr @_ZNK6icu_7516LocalPointerBaseI15UResourceBundleE8getAliasEv(ptr noundef nonnull align 8 dereferenceable(8) %this) #0 comdat align 2 {
entry:
  %this.addr = alloca ptr, align 8
  store ptr %this, ptr %this.addr, align 8
  %this1 = load ptr, ptr %this.addr, align 8
  %ptr = getelementptr inbounds %"class.icu_75::LocalPointerBase", ptr %this1, i32 0, i32 0
  %0 = load ptr, ptr %ptr, align 8
  ret ptr %0
}

; Function Attrs: mustprogress uwtable
define linkonce_odr void @_ZN6icu_7527LocalUResourceBundlePointerC2EP15UResourceBundle(ptr noundef nonnull align 8 dereferenceable(8) %this, ptr noundef %p) unnamed_addr #1 comdat align 2 {
entry:
  %this.addr = alloca ptr, align 8
  %p.addr = alloca ptr, align 8
  store ptr %this, ptr %this.addr, align 8
  store ptr %p, ptr %p.addr, align 8
  %this1 = load ptr, ptr %this.addr, align 8
  %0 = load ptr, ptr %p.addr, align 8
  call void @_ZN6icu_7516LocalPointerBaseI15UResourceBundleEC2EPS1_(ptr noundef nonnull align 8 dereferenceable(8) %this1, ptr noundef %0)
  ret void
}

; Function Attrs: mustprogress uwtable
define noundef ptr @_ZNK6icu_7515CollationLoader22makeCacheEntryFromRootERKNS_6LocaleER10UErrorCode(ptr noundef nonnull align 8 dereferenceable(528) %this, ptr noundef nonnull align 8 dereferenceable(217) %0, ptr noundef nonnull align 4 dereferenceable(4) %errorCode) #1 align 2 {
entry:
  %retval = alloca ptr, align 8
  %this.addr = alloca ptr, align 8
  %.addr = alloca ptr, align 8
  %errorCode.addr = alloca ptr, align 8
  store ptr %this, ptr %this.addr, align 8
  store ptr %0, ptr %.addr, align 8
  store ptr %errorCode, ptr %errorCode.addr, align 8
  %this1 = load ptr, ptr %this.addr, align 8
  %1 = load ptr, ptr %errorCode.addr, align 8
  %2 = load i32, ptr %1, align 4
  %call = call noundef signext i8 @_ZL9U_FAILURE10UErrorCode(i32 noundef %2)
  %tobool = icmp ne i8 %call, 0
  br i1 %tobool, label %if.then, label %if.end

if.then:                                          ; preds = %entry
  store ptr null, ptr %retval, align 8
  br label %return

if.end:                                           ; preds = %entry
  %rootEntry = getelementptr inbounds %"class.icu_75::CollationLoader", ptr %this1, i32 0, i32 1
  %3 = load ptr, ptr %rootEntry, align 8
  call void @_ZNK6icu_7512SharedObject6addRefEv(ptr noundef nonnull align 8 dereferenceable(24) %3)
  %validLocale = getelementptr inbounds %"class.icu_75::CollationLoader", ptr %this1, i32 0, i32 2
  %rootEntry2 = getelementptr inbounds %"class.icu_75::CollationLoader", ptr %this1, i32 0, i32 1
  %4 = load ptr, ptr %rootEntry2, align 8
  %5 = load ptr, ptr %errorCode.addr, align 8
  %call3 = call noundef ptr @_ZN6icu_7515CollationLoader14makeCacheEntryERKNS_6LocaleEPKNS_19CollationCacheEntryER10UErrorCode(ptr noundef nonnull align 8 dereferenceable(217) %validLocale, ptr noundef %4, ptr noundef nonnull align 4 dereferenceable(4) %5)
  store ptr %call3, ptr %retval, align 8
  br label %return

return:                                           ; preds = %if.end, %if.then
  %6 = load ptr, ptr %retval, align 8
  ret ptr %6
}

; Function Attrs: mustprogress nounwind uwtable
define internal noundef signext i8 @_ZL9U_FAILURE10UErrorCode(i32 noundef %code) #0 {
entry:
  %code.addr = alloca i32, align 4
  store i32 %code, ptr %code.addr, align 4
  %0 = load i32, ptr %code.addr, align 4
  %cmp = icmp sgt i32 %0, 0
  %conv = zext i1 %cmp to i8
  ret i8 %conv
}

; Function Attrs: mustprogress uwtable
define noundef ptr @_ZN6icu_7515CollationLoader14loadFromBundleER10UErrorCode(ptr noundef nonnull align 8 dereferenceable(528) %this, ptr noundef nonnull align 4 dereferenceable(4) %errorCode) #1 align 2 personality ptr @__gxx_personality_v0 {
entry:
  %retval = alloca ptr, align 8
  %this.addr = alloca ptr, align 8
  %errorCode.addr = alloca ptr, align 8
  %internalErrorCode = alloca i32, align 4
  %def = alloca %"class.icu_75::LocalUResourceBundlePointer", align 8
  %length = alloca i32, align 4
  %s = alloca ptr, align 8
  %exn.slot = alloca ptr, align 8
  %ehselector.slot = alloca i32, align 4
  store ptr %this, ptr %this.addr, align 8
  store ptr %errorCode, ptr %errorCode.addr, align 8
  %this1 = load ptr, ptr %this.addr, align 8
  %0 = load ptr, ptr %errorCode.addr, align 8
  %1 = load i32, ptr %0, align 4
  %call = call noundef signext i8 @_ZL9U_FAILURE10UErrorCode(i32 noundef %1)
  %tobool = icmp ne i8 %call, 0
  br i1 %tobool, label %if.then, label %if.end

if.then:                                          ; preds = %entry
  store ptr null, ptr %retval, align 8
  br label %return

if.end:                                           ; preds = %entry
  %bundle = getelementptr inbounds %"class.icu_75::CollationLoader", ptr %this1, i32 0, i32 8
  %2 = load ptr, ptr %bundle, align 8
  %3 = load ptr, ptr %errorCode.addr, align 8
  %call2 = call ptr @ures_getByKey_75(ptr noundef %2, ptr noundef @.str.3, ptr noundef null, ptr noundef %3)
  %collations = getelementptr inbounds %"class.icu_75::CollationLoader", ptr %this1, i32 0, i32 9
  store ptr %call2, ptr %collations, align 8
  %4 = load ptr, ptr %errorCode.addr, align 8
  %5 = load i32, ptr %4, align 4
  %cmp = icmp eq i32 %5, 2
  br i1 %cmp, label %if.then3, label %if.end5

if.then3:                                         ; preds = %if.end
  %6 = load ptr, ptr %errorCode.addr, align 8
  store i32 -127, ptr %6, align 4
  %validLocale = getelementptr inbounds %"class.icu_75::CollationLoader", ptr %this1, i32 0, i32 2
  %7 = load ptr, ptr %errorCode.addr, align 8
  %call4 = call noundef ptr @_ZNK6icu_7515CollationLoader22makeCacheEntryFromRootERKNS_6LocaleER10UErrorCode(ptr noundef nonnull align 8 dereferenceable(528) %this1, ptr noundef nonnull align 8 dereferenceable(217) %validLocale, ptr noundef nonnull align 4 dereferenceable(4) %7)
  store ptr %call4, ptr %retval, align 8
  br label %return

if.end5:                                          ; preds = %if.end
  %8 = load ptr, ptr %errorCode.addr, align 8
  %9 = load i32, ptr %8, align 4
  %call6 = call noundef signext i8 @_ZL9U_FAILURE10UErrorCode(i32 noundef %9)
  %tobool7 = icmp ne i8 %call6, 0
  br i1 %tobool7, label %if.then8, label %if.end9

if.then8:                                         ; preds = %if.end5
  store ptr null, ptr %retval, align 8
  br label %return

if.end9:                                          ; preds = %if.end5
  store i32 0, ptr %internalErrorCode, align 4
  %collations10 = getelementptr inbounds %"class.icu_75::CollationLoader", ptr %this1, i32 0, i32 9
  %10 = load ptr, ptr %collations10, align 8
  %call11 = call ptr @ures_getByKeyWithFallback_75(ptr noundef %10, ptr noundef @.str.6, ptr noundef null, ptr noundef %internalErrorCode)
  call void @_ZN6icu_7527LocalUResourceBundlePointerC2EP15UResourceBundle(ptr noundef nonnull align 8 dereferenceable(8) %def, ptr noundef %call11)
  %call12 = invoke noundef ptr @_ZNK6icu_7516LocalPointerBaseI15UResourceBundleE8getAliasEv(ptr noundef nonnull align 8 dereferenceable(8) %def)
          to label %invoke.cont unwind label %lpad

invoke.cont:                                      ; preds = %if.end9
  %call14 = invoke ptr @ures_getString_75(ptr noundef %call12, ptr noundef %length, ptr noundef %internalErrorCode)
          to label %invoke.cont13 unwind label %lpad

invoke.cont13:                                    ; preds = %invoke.cont
  store ptr %call14, ptr %s, align 8
  %11 = load i32, ptr %internalErrorCode, align 4
  %call16 = invoke noundef signext i8 @_ZL9U_SUCCESS10UErrorCode(i32 noundef %11)
          to label %invoke.cont15 unwind label %lpad

invoke.cont15:                                    ; preds = %invoke.cont13
  %tobool17 = icmp ne i8 %call16, 0
  br i1 %tobool17, label %land.lhs.true, label %if.else

land.lhs.true:                                    ; preds = %invoke.cont15
  %12 = load i32, ptr %length, align 4
  %cmp18 = icmp slt i32 0, %12
  br i1 %cmp18, label %land.lhs.true19, label %if.else

land.lhs.true19:                                  ; preds = %land.lhs.true
  %13 = load i32, ptr %length, align 4
  %cmp20 = icmp slt i32 %13, 16
  br i1 %cmp20, label %if.then21, label %if.else

if.then21:                                        ; preds = %land.lhs.true19
  %14 = load ptr, ptr %s, align 8
  %defaultType = getelementptr inbounds %"class.icu_75::CollationLoader", ptr %this1, i32 0, i32 5
  %arraydecay = getelementptr inbounds [16 x i8], ptr %defaultType, i64 0, i64 0
  %15 = load i32, ptr %length, align 4
  %add = add nsw i32 %15, 1
  invoke void @u_UCharsToChars_75(ptr noundef %14, ptr noundef %arraydecay, i32 noundef %add)
          to label %invoke.cont22 unwind label %lpad

invoke.cont22:                                    ; preds = %if.then21
  br label %if.end26

lpad:                                             ; preds = %if.then21, %invoke.cont13, %invoke.cont, %if.end9
  %16 = landingpad { ptr, i32 }
          cleanup
  %17 = extractvalue { ptr, i32 } %16, 0
  store ptr %17, ptr %exn.slot, align 8
  %18 = extractvalue { ptr, i32 } %16, 1
  store i32 %18, ptr %ehselector.slot, align 4
  call void @_ZN6icu_7527LocalUResourceBundlePointerD2Ev(ptr noundef nonnull align 8 dereferenceable(8) %def) #9
  br label %eh.resume

if.else:                                          ; preds = %land.lhs.true19, %land.lhs.true, %invoke.cont15
  %defaultType23 = getelementptr inbounds %"class.icu_75::CollationLoader", ptr %this1, i32 0, i32 5
  %arraydecay24 = getelementptr inbounds [16 x i8], ptr %defaultType23, i64 0, i64 0
  %call25 = call ptr @strcpy(ptr noundef %arraydecay24, ptr noundef @.str.7) #9
  br label %if.end26

if.end26:                                         ; preds = %if.else, %invoke.cont22
  call void @_ZN6icu_7527LocalUResourceBundlePointerD2Ev(ptr noundef nonnull align 8 dereferenceable(8) %def) #9
  %type = getelementptr inbounds %"class.icu_75::CollationLoader", ptr %this1, i32 0, i32 4
  %arrayidx = getelementptr inbounds [16 x i8], ptr %type, i64 0, i64 0
  %19 = load i8, ptr %arrayidx, align 8
  %conv = sext i8 %19 to i32
  %cmp27 = icmp eq i32 %conv, 0
  br i1 %cmp27, label %if.then28, label %if.else53

if.then28:                                        ; preds = %if.end26
  %type29 = getelementptr inbounds %"class.icu_75::CollationLoader", ptr %this1, i32 0, i32 4
  %arraydecay30 = getelementptr inbounds [16 x i8], ptr %type29, i64 0, i64 0
  %defaultType31 = getelementptr inbounds %"class.icu_75::CollationLoader", ptr %this1, i32 0, i32 5
  %arraydecay32 = getelementptr inbounds [16 x i8], ptr %defaultType31, i64 0, i64 0
  %call33 = call ptr @strcpy(ptr noundef %arraydecay30, ptr noundef %arraydecay32) #9
  %typesTried = getelementptr inbounds %"class.icu_75::CollationLoader", ptr %this1, i32 0, i32 6
  %20 = load i32, ptr %typesTried, align 8
  %or = or i32 %20, 2
  store i32 %or, ptr %typesTried, align 8
  %type34 = getelementptr inbounds %"class.icu_75::CollationLoader", ptr %this1, i32 0, i32 4
  %arraydecay35 = getelementptr inbounds [16 x i8], ptr %type34, i64 0, i64 0
  %call36 = call i32 @strcmp(ptr noundef %arraydecay35, ptr noundef @.str.8) #12
  %cmp37 = icmp eq i32 %call36, 0
  br i1 %cmp37, label %if.then38, label %if.end41

if.then38:                                        ; preds = %if.then28
  %typesTried39 = getelementptr inbounds %"class.icu_75::CollationLoader", ptr %this1, i32 0, i32 6
  %21 = load i32, ptr %typesTried39, align 8
  %or40 = or i32 %21, 1
  store i32 %or40, ptr %typesTried39, align 8
  br label %if.end41

if.end41:                                         ; preds = %if.then38, %if.then28
  %type42 = getelementptr inbounds %"class.icu_75::CollationLoader", ptr %this1, i32 0, i32 4
  %arraydecay43 = getelementptr inbounds [16 x i8], ptr %type42, i64 0, i64 0
  %call44 = call i32 @strcmp(ptr noundef %arraydecay43, ptr noundef @.str.7) #12
  %cmp45 = icmp eq i32 %call44, 0
  br i1 %cmp45, label %if.then46, label %if.end49

if.then46:                                        ; preds = %if.end41
  %typesTried47 = getelementptr inbounds %"class.icu_75::CollationLoader", ptr %this1, i32 0, i32 6
  %22 = load i32, ptr %typesTried47, align 8
  %or48 = or i32 %22, 4
  store i32 %or48, ptr %typesTried47, align 8
  br label %if.end49

if.end49:                                         ; preds = %if.then46, %if.end41
  %locale = getelementptr inbounds %"class.icu_75::CollationLoader", ptr %this1, i32 0, i32 3
  %type50 = getelementptr inbounds %"class.icu_75::CollationLoader", ptr %this1, i32 0, i32 4
  %arraydecay51 = getelementptr inbounds [16 x i8], ptr %type50, i64 0, i64 0
  %23 = load ptr, ptr %errorCode.addr, align 8
  call void @_ZN6icu_756Locale15setKeywordValueEPKcS2_R10UErrorCode(ptr noundef nonnull align 8 dereferenceable(217) %locale, ptr noundef @.str.5, ptr noundef %arraydecay51, ptr noundef nonnull align 4 dereferenceable(4) %23)
  %24 = load ptr, ptr %errorCode.addr, align 8
  %call52 = call noundef ptr @_ZN6icu_7515CollationLoader13getCacheEntryER10UErrorCode(ptr noundef nonnull align 8 dereferenceable(528) %this1, ptr noundef nonnull align 4 dereferenceable(4) %24)
  store ptr %call52, ptr %retval, align 8
  br label %return

if.else53:                                        ; preds = %if.end26
  %type54 = getelementptr inbounds %"class.icu_75::CollationLoader", ptr %this1, i32 0, i32 4
  %arraydecay55 = getelementptr inbounds [16 x i8], ptr %type54, i64 0, i64 0
  %defaultType56 = getelementptr inbounds %"class.icu_75::CollationLoader", ptr %this1, i32 0, i32 5
  %arraydecay57 = getelementptr inbounds [16 x i8], ptr %defaultType56, i64 0, i64 0
  %call58 = call i32 @strcmp(ptr noundef %arraydecay55, ptr noundef %arraydecay57) #12
  %cmp59 = icmp eq i32 %call58, 0
  br i1 %cmp59, label %if.then60, label %if.end63

if.then60:                                        ; preds = %if.else53
  %typesTried61 = getelementptr inbounds %"class.icu_75::CollationLoader", ptr %this1, i32 0, i32 6
  %25 = load i32, ptr %typesTried61, align 8
  %or62 = or i32 %25, 2
  store i32 %or62, ptr %typesTried61, align 8
  br label %if.end63

if.end63:                                         ; preds = %if.then60, %if.else53
  %type64 = getelementptr inbounds %"class.icu_75::CollationLoader", ptr %this1, i32 0, i32 4
  %arraydecay65 = getelementptr inbounds [16 x i8], ptr %type64, i64 0, i64 0
  %call66 = call i32 @strcmp(ptr noundef %arraydecay65, ptr noundef @.str.8) #12
  %cmp67 = icmp eq i32 %call66, 0
  br i1 %cmp67, label %if.then68, label %if.end71

if.then68:                                        ; preds = %if.end63
  %typesTried69 = getelementptr inbounds %"class.icu_75::CollationLoader", ptr %this1, i32 0, i32 6
  %26 = load i32, ptr %typesTried69, align 8
  %or70 = or i32 %26, 1
  store i32 %or70, ptr %typesTried69, align 8
  br label %if.end71

if.end71:                                         ; preds = %if.then68, %if.end63
  %type72 = getelementptr inbounds %"class.icu_75::CollationLoader", ptr %this1, i32 0, i32 4
  %arraydecay73 = getelementptr inbounds [16 x i8], ptr %type72, i64 0, i64 0
  %call74 = call i32 @strcmp(ptr noundef %arraydecay73, ptr noundef @.str.7) #12
  %cmp75 = icmp eq i32 %call74, 0
  br i1 %cmp75, label %if.then76, label %if.end79

if.then76:                                        ; preds = %if.end71
  %typesTried77 = getelementptr inbounds %"class.icu_75::CollationLoader", ptr %this1, i32 0, i32 6
  %27 = load i32, ptr %typesTried77, align 8
  %or78 = or i32 %27, 4
  store i32 %or78, ptr %typesTried77, align 8
  br label %if.end79

if.end79:                                         ; preds = %if.then76, %if.end71
  %28 = load ptr, ptr %errorCode.addr, align 8
  %call80 = call noundef ptr @_ZN6icu_7515CollationLoader18loadFromCollationsER10UErrorCode(ptr noundef nonnull align 8 dereferenceable(528) %this1, ptr noundef nonnull align 4 dereferenceable(4) %28)
  store ptr %call80, ptr %retval, align 8
  br label %return

return:                                           ; preds = %if.end79, %if.end49, %if.then8, %if.then3, %if.then
  %29 = load ptr, ptr %retval, align 8
  ret ptr %29

eh.resume:                                        ; preds = %lpad
  %exn = load ptr, ptr %exn.slot, align 8
  %sel = load i32, ptr %ehselector.slot, align 4
  %lpad.val = insertvalue { ptr, i32 } poison, ptr %exn, 0
  %lpad.val81 = insertvalue { ptr, i32 } %lpad.val, i32 %sel, 1
  resume { ptr, i32 } %lpad.val81
}