; Function Attrs: mustprogress uwtable
define noundef ptr @_ZN6icu_7515CollationLoader14loadFromBundleER10UErrorCode(ptr noundef nonnull align 8 dereferenceable(528) %this, ptr noundef nonnull align 4 dereferenceable(4) %errorCode) local_unnamed_addr #1 align 2 personality ptr @__gxx_personality_v0 {
entry:
  %internalErrorCode = alloca i32, align 4
  %def = alloca %"class.icu_75::LocalUResourceBundlePointer", align 8
  %length = alloca i32, align 4
  %0 = load i32, ptr %errorCode, align 4
  %cmp.i = icmp slt i32 %0, 1
  br i1 %cmp.i, label %if.end, label %return

if.end:                                           ; preds = %entry
  %bundle = getelementptr inbounds i8, ptr %this, i64 504
  %1 = load ptr, ptr %bundle, align 8
  %call2 = tail call ptr @ures_getByKey_75(ptr noundef %1, ptr noundef nonnull @.str.3, ptr noundef null, ptr noundef nonnull %errorCode)
  %collations = getelementptr inbounds i8, ptr %this, i64 512
  store ptr %call2, ptr %collations, align 8
  %2 = load i32, ptr %errorCode, align 4
  %cmp = icmp eq i32 %2, 2
  br i1 %cmp, label %_ZNK6icu_7515CollationLoader22makeCacheEntryFromRootERKNS_6LocaleER10UErrorCode.exit, label %if.end5

_ZNK6icu_7515CollationLoader22makeCacheEntryFromRootERKNS_6LocaleER10UErrorCode.exit: ; preds = %if.end
  store i32 -127, ptr %errorCode, align 4
  %rootEntry.i = getelementptr inbounds i8, ptr %this, i64 8
  %3 = load ptr, ptr %rootEntry.i, align 8
  tail call void @_ZNK6icu_7512SharedObject6addRefEv(ptr noundef nonnull align 8 dereferenceable(24) %3)
  %validLocale.i = getelementptr inbounds i8, ptr %this, i64 16
  %4 = load ptr, ptr %rootEntry.i, align 8
  %call3.i = tail call noundef ptr @_ZN6icu_7515CollationLoader14makeCacheEntryERKNS_6LocaleEPKNS_19CollationCacheEntryER10UErrorCode(ptr noundef nonnull align 8 dereferenceable(217) %validLocale.i, ptr noundef %4, ptr noundef nonnull align 4 dereferenceable(4) %errorCode)
  br label %return

if.end5:                                          ; preds = %if.end
  %cmp.i14 = icmp slt i32 %2, 1
  br i1 %cmp.i14, label %if.end9, label %return

if.end9:                                          ; preds = %if.end5
  store i32 0, ptr %internalErrorCode, align 4
  %call11 = call ptr @ures_getByKeyWithFallback_75(ptr noundef %call2, ptr noundef nonnull @.str.6, ptr noundef null, ptr noundef nonnull %internalErrorCode)
  store ptr %call11, ptr %def, align 8
  %call14 = invoke ptr @ures_getString_75(ptr noundef %call11, ptr noundef nonnull %length, ptr noundef nonnull %internalErrorCode)
          to label %invoke.cont13 unwind label %lpad

invoke.cont13:                                    ; preds = %if.end9
  %5 = load i32, ptr %internalErrorCode, align 4
  %cmp.i16 = icmp slt i32 %5, 1
  %6 = load i32, ptr %length, align 4
  %cmp18 = icmp sgt i32 %6, 0
  %or.cond = select i1 %cmp.i16, i1 %cmp18, i1 false
  %cmp20 = icmp slt i32 %6, 16
  %or.cond1 = select i1 %or.cond, i1 %cmp20, i1 false
  %defaultType = getelementptr inbounds i8, ptr %this, i64 480
  br i1 %or.cond1, label %if.then21, label %if.else

if.then21:                                        ; preds = %invoke.cont13
  %add = add nuw nsw i32 %6, 1
  invoke void @u_UCharsToChars_75(ptr noundef %call14, ptr noundef nonnull %defaultType, i32 noundef %add)
          to label %if.end26 unwind label %lpad

lpad:                                             ; preds = %if.then21, %if.end9
  %7 = landingpad { ptr, i32 }
          cleanup
  call void @_ZN6icu_7527LocalUResourceBundlePointerD2Ev(ptr noundef nonnull align 8 dereferenceable(8) %def) #13
  resume { ptr, i32 } %7

if.else:                                          ; preds = %invoke.cont13
  call void @llvm.memcpy.p0.p0.i64(ptr noundef nonnull align 8 dereferenceable(9) %defaultType, ptr noundef nonnull align 1 dereferenceable(9) @.str.7, i64 9, i1 false) #13
  br label %if.end26

if.end26:                                         ; preds = %if.then21, %if.else
  %cmp.not.i = icmp eq ptr %call11, null
  br i1 %cmp.not.i, label %_ZN6icu_7527LocalUResourceBundlePointerD2Ev.exit, label %if.then.i

if.then.i:                                        ; preds = %if.end26
  invoke void @ures_close_75(ptr noundef nonnull %call11)
          to label %_ZN6icu_7527LocalUResourceBundlePointerD2Ev.exit unwind label %terminate.lpad.i

terminate.lpad.i:                                 ; preds = %if.then.i
  %8 = landingpad { ptr, i32 }
          catch ptr null
  %9 = extractvalue { ptr, i32 } %8, 0
  call void @__clang_call_terminate(ptr %9) #15
  unreachable

_ZN6icu_7527LocalUResourceBundlePointerD2Ev.exit: ; preds = %if.end26, %if.then.i
  %type = getelementptr inbounds i8, ptr %this, i64 464
  %10 = load i8, ptr %type, align 8
  %cmp27 = icmp eq i8 %10, 0
  %defaultType31 = getelementptr inbounds i8, ptr %this, i64 480
  br i1 %cmp27, label %if.then28, label %if.else53

if.then28:                                        ; preds = %_ZN6icu_7527LocalUResourceBundlePointerD2Ev.exit
  %call33 = call ptr @strcpy(ptr noundef nonnull dereferenceable(1) %type, ptr noundef nonnull dereferenceable(1) %defaultType31) #13
  %typesTried = getelementptr inbounds i8, ptr %this, i64 496
  %11 = load i32, ptr %typesTried, align 8
  %or = or i32 %11, 2
  store i32 %or, ptr %typesTried, align 8
  %bcmp12 = call i32 @bcmp(ptr noundef nonnull dereferenceable(7) %type, ptr noundef nonnull dereferenceable(7) @.str.8, i64 7)
  %cmp37 = icmp eq i32 %bcmp12, 0
  br i1 %cmp37, label %if.then38, label %if.end41

if.then38:                                        ; preds = %if.then28
  %or40 = or i32 %11, 3
  store i32 %or40, ptr %typesTried, align 8
  br label %if.end41

if.end41:                                         ; preds = %if.then38, %if.then28
  %12 = phi i32 [ %or40, %if.then38 ], [ %or, %if.then28 ]
  %bcmp13 = call i32 @bcmp(ptr noundef nonnull dereferenceable(9) %type, ptr noundef nonnull dereferenceable(9) @.str.7, i64 9)
  %cmp45 = icmp eq i32 %bcmp13, 0
  br i1 %cmp45, label %if.then46, label %if.end49

if.then46:                                        ; preds = %if.end41
  %or48 = or i32 %12, 4
  store i32 %or48, ptr %typesTried, align 8
  br label %if.end49

if.end49:                                         ; preds = %if.then46, %if.end41
  %locale = getelementptr inbounds i8, ptr %this, i64 240
  call void @_ZN6icu_756Locale15setKeywordValueEPKcS2_R10UErrorCode(ptr noundef nonnull align 8 dereferenceable(217) %locale, ptr noundef nonnull @.str.5, ptr noundef nonnull %type, ptr noundef nonnull align 4 dereferenceable(4) %errorCode)
  %call52 = call noundef ptr @_ZN6icu_7515CollationLoader13getCacheEntryER10UErrorCode(ptr noundef nonnull align 8 dereferenceable(528) %this, ptr noundef nonnull align 4 dereferenceable(4) %errorCode)
  br label %return

if.else53:                                        ; preds = %_ZN6icu_7527LocalUResourceBundlePointerD2Ev.exit
  %call58 = call i32 @strcmp(ptr noundef nonnull dereferenceable(1) %type, ptr noundef nonnull dereferenceable(1) %defaultType31) #16
  %cmp59 = icmp eq i32 %call58, 0
  br i1 %cmp59, label %if.then60, label %if.end63

if.then60:                                        ; preds = %if.else53
  %typesTried61 = getelementptr inbounds i8, ptr %this, i64 496
  %13 = load i32, ptr %typesTried61, align 8
  %or62 = or i32 %13, 2
  store i32 %or62, ptr %typesTried61, align 8
  br label %if.end63

if.end63:                                         ; preds = %if.then60, %if.else53
  %bcmp = call i32 @bcmp(ptr noundef nonnull dereferenceable(7) %type, ptr noundef nonnull dereferenceable(7) @.str.8, i64 7)
  %cmp67 = icmp eq i32 %bcmp, 0
  br i1 %cmp67, label %if.then68, label %if.end71

if.then68:                                        ; preds = %if.end63
  %typesTried69 = getelementptr inbounds i8, ptr %this, i64 496
  %14 = load i32, ptr %typesTried69, align 8
  %or70 = or i32 %14, 1
  store i32 %or70, ptr %typesTried69, align 8
  br label %if.end71

if.end71:                                         ; preds = %if.then68, %if.end63
  %bcmp11 = call i32 @bcmp(ptr noundef nonnull dereferenceable(9) %type, ptr noundef nonnull dereferenceable(9) @.str.7, i64 9)
  %cmp75 = icmp eq i32 %bcmp11, 0
  br i1 %cmp75, label %if.then76, label %if.end79

if.then76:                                        ; preds = %if.end71
  %typesTried77 = getelementptr inbounds i8, ptr %this, i64 496
  %15 = load i32, ptr %typesTried77, align 8
  %or78 = or i32 %15, 4
  store i32 %or78, ptr %typesTried77, align 8
  br label %if.end79

if.end79:                                         ; preds = %if.then76, %if.end71
  %call80 = call noundef ptr @_ZN6icu_7515CollationLoader18loadFromCollationsER10UErrorCode(ptr noundef nonnull align 8 dereferenceable(528) %this, ptr noundef nonnull align 4 dereferenceable(4) %errorCode)
  br label %return

return:                                           ; preds = %if.end5, %entry, %if.end79, %if.end49, %_ZNK6icu_7515CollationLoader22makeCacheEntryFromRootERKNS_6LocaleER10UErrorCode.exit
  %retval.0 = phi ptr [ %call3.i, %_ZNK6icu_7515CollationLoader22makeCacheEntryFromRootERKNS_6LocaleER10UErrorCode.exit ], [ %call52, %if.end49 ], [ %call80, %if.end79 ], [ null, %entry ], [ null, %if.end5 ]
  ret ptr %retval.0
}